; Function Attrs: mustprogress nofree norecurse nosync nounwind willreturn memory(argmem: readwrite) uwtable
define hidden void @_ZN5boost9container3pmr13pool_resource17priv_limit_optionERmmm(ptr nocapture noundef nonnull align 8 dereferenceable(8) %0, i64 noundef %1, i64 noundef %2) local_unnamed_addr #0 align 2 {
  %4 = load i64, ptr %0, align 8, !tbaa !3
  %.not = icmp eq i64 %4, 0
  br i1 %.not, label %8, label %5

5:                                                ; preds = %3
  %6 = icmp ult i64 %4, %1
  br i1 %6, label %8, label %7

7:                                                ; preds = %5
  %.sroa.speculated = tail call i64 @llvm.umin.i64(i64 %4, i64 %2)
  br label %8

8:                                                ; preds = %7, %5, %3
  %storemerge = phi i64 [ %2, %3 ], [ %.sroa.speculated, %7 ], [ %1, %5 ]
  store i64 %storemerge, ptr %0, align 8, !tbaa !3
  ret void
}